; Function Attrs: mustprogress uwtable
define hidden noundef zeroext i1 @_ZN14bv_decl_plugin15get_concat_sizeEjPKP4sortRi(ptr noundef nonnull readonly align 8 captures(none) dereferenceable(608) %0, i32 noundef %1, ptr noundef readonly captures(none) %2, ptr noundef nonnull writeonly align 4 captures(none) dereferenceable(4) initializes((0, 4)) %3) local_unnamed_addr #3 align 2 {
  store i32 0, ptr %3, align 4, !tbaa !38
  %5 = icmp eq i32 %1, 0
  br i1 %5, label %.critedge, label %.lr.ph

.lr.ph:                                           ; preds = %4
  %6 = getelementptr inbounds nuw i8, ptr %0, i64 16
  %wide.trip.count = zext i32 %1 to i64
  br label %7

7:                                                ; preds = %.lr.ph, %28
  %indvars.iv = phi i64 [ 0, %.lr.ph ], [ %indvars.iv.next, %28 ]
  %8 = phi i32 [ 0, %.lr.ph ], [ %30, %28 ]
  %9 = getelementptr inbounds nuw ptr, ptr %2, i64 %indvars.iv
  %10 = load ptr, ptr %9, align 8, !tbaa !17
  %11 = getelementptr inbounds nuw i8, ptr %10, i64 24
  %12 = load ptr, ptr %11, align 8, !tbaa !134
  %13 = icmp eq ptr %12, null
  br i1 %13, label %.critedge, label %_ZNK4decl13get_family_idEv.exit.thread.i

_ZNK4decl13get_family_idEv.exit.thread.i:         ; preds = %7
  %14 = load i32, ptr %12, align 8, !tbaa !19
  %15 = load i32, ptr %6, align 8, !tbaa !10
  %16 = icmp eq i32 %14, %15
  br i1 %16, label %_ZNK4decl13get_decl_kindEv.exit.i, label %.critedge

_ZNK4decl13get_decl_kindEv.exit.i:                ; preds = %_ZNK4decl13get_family_idEv.exit.thread.i
  %17 = getelementptr inbounds nuw i8, ptr %12, i64 4
  %18 = load i32, ptr %17, align 4, !tbaa !137
  %19 = icmp eq i32 %18, 0
  br i1 %19, label %20, label %.critedge

20:                                               ; preds = %_ZNK4decl13get_decl_kindEv.exit.i
  %21 = getelementptr inbounds nuw i8, ptr %12, i64 8
  %22 = load ptr, ptr %21, align 8, !tbaa !37
  %23 = getelementptr inbounds nuw i8, ptr %22, i64 8
  %24 = load i8, ptr %23, align 8, !tbaa !117
  %.not.i.i.i.i = icmp eq i8 %24, 0
  br i1 %.not.i.i.i.i, label %28, label %25

25:                                               ; preds = %20
  %26 = tail call ptr @__cxa_allocate_exception(i64 16) #24
  store ptr getelementptr inbounds nuw inrange(-16, 24) (i8, ptr @_ZTVSt18bad_variant_access, i64 16), ptr %26, align 8, !tbaa !11
  %27 = getelementptr inbounds nuw i8, ptr %26, i64 8
  store ptr @.str.113, ptr %27, align 8, !tbaa !130
  tail call void @__cxa_throw(ptr nonnull %26, ptr nonnull @_ZTISt18bad_variant_access, ptr nonnull @_ZNSt9exceptionD2Ev) #26
  unreachable

28:                                               ; preds = %20
  %29 = load i32, ptr %22, align 4, !tbaa !38
  %30 = add nsw i32 %8, %29
  store i32 %30, ptr %3, align 4, !tbaa !38
  %indvars.iv.next = add nuw nsw i64 %indvars.iv, 1
  %exitcond.not = icmp eq i64 %indvars.iv.next, %wide.trip.count
  br i1 %exitcond.not, label %.critedge, label %7, !llvm.loop !138

.critedge:                                        ; preds = %28, %_ZNK4decl13get_decl_kindEv.exit.i, %_ZNK4decl13get_family_idEv.exit.thread.i, %7, %4
  %.lcssa = phi i1 [ true, %4 ], [ false, %7 ], [ false, %_ZNK4decl13get_family_idEv.exit.thread.i ], [ false, %_ZNK4decl13get_decl_kindEv.exit.i ], [ true, %28 ]
  ret i1 %.lcssa
}